; Function Attrs: nounwind uwtable
define ptr @l_Lake_buildLeanExe___boxed(ptr noundef %0, ptr noundef %1, ptr noundef %2, ptr noundef %3, ptr noundef %4, ptr noundef %5, ptr noundef %6, ptr noundef %7, ptr noundef %8, ptr noundef %9, ptr noundef %10, ptr noundef %11) local_unnamed_addr #0 {
  %13 = ptrtoint ptr %5 to i64
  %14 = and i64 %13, 1
  %.not = icmp eq i64 %14, 0
  br i1 %.not, label %15, label %lean_dec.exit15

15:                                               ; preds = %12
  %16 = load i32, ptr %5, align 4, !tbaa !4
  %17 = icmp sgt i32 %16, 1
  br i1 %17, label %18, label %20, !prof !12

18:                                               ; preds = %15
  %19 = add nsw i32 %16, -1
  store i32 %19, ptr %5, align 4, !tbaa !4
  br label %lean_dec.exit15

20:                                               ; preds = %15
  %.not.i = icmp eq i32 %16, 0
  br i1 %.not.i, label %lean_dec.exit15, label %21

21:                                               ; preds = %20
  tail call void @lean_dec_ref_cold(ptr noundef nonnull %5) #5
  br label %lean_dec.exit15

lean_dec.exit15:                                  ; preds = %21, %20, %18, %12
  %22 = load ptr, ptr @l_Lake_buildSharedLib___closed__1, align 8, !tbaa !9
  %23 = tail call ptr @l_Lake_Job_collectArray___rarg(ptr noundef %1, ptr noundef %22) #5
  tail call void @lean_inc_heartbeat() #5
  %24 = tail call noalias ptr @mi_malloc_small(i64 noundef 64) #5
  %25 = icmp eq ptr %24, null
  br i1 %25, label %26, label %l_Lake_buildLeanExe.exit

26:                                               ; preds = %lean_dec.exit15
  tail call void @lean_internal_panic_out_of_memory() #6
  unreachable

l_Lake_buildLeanExe.exit:                         ; preds = %lean_dec.exit15
  %27 = and i64 %13, 510
  %28 = or disjoint i64 %27, 1
  %29 = inttoptr i64 %28 to ptr
  %30 = getelementptr inbounds nuw i8, ptr %24, i64 4
  store i32 1, ptr %24, align 4, !tbaa !4
  store i32 -184549312, ptr %30, align 4
  %31 = getelementptr inbounds nuw i8, ptr %24, i64 8
  store ptr @l_Lake_buildLeanExe___lambda__3___boxed, ptr %31, align 8, !tbaa !9
  %32 = getelementptr inbounds nuw i8, ptr %24, i64 16
  store i16 12, ptr %32, align 8, !tbaa !15
  %33 = getelementptr inbounds nuw i8, ptr %24, i64 18
  store i16 5, ptr %33, align 2, !tbaa !15
  %34 = getelementptr inbounds nuw i8, ptr %24, i64 24
  store ptr %2, ptr %34, align 8, !tbaa !9
  %35 = getelementptr inbounds nuw i8, ptr %24, i64 32
  store ptr %4, ptr %35, align 8, !tbaa !9
  %36 = getelementptr inbounds nuw i8, ptr %24, i64 40
  store ptr %3, ptr %36, align 8, !tbaa !9
  %37 = getelementptr inbounds nuw i8, ptr %24, i64 48
  store ptr %29, ptr %37, align 8, !tbaa !9
  %38 = getelementptr inbounds nuw i8, ptr %24, i64 56
  store ptr %0, ptr %38, align 8, !tbaa !9
  %39 = load ptr, ptr @l_Task_Priority_default, align 8, !tbaa !9
  %40 = tail call ptr @l_Lake_Job_bindM___at_Lake_buildLeanExe___spec__2(ptr noundef %23, ptr noundef nonnull %24, ptr noundef %39, i8 noundef zeroext 0, ptr noundef %6, ptr noundef %7, ptr noundef %8, ptr noundef %9, ptr noundef %10, ptr noundef %11)
  %41 = ptrtoint ptr %1 to i64
  %42 = and i64 %41, 1
  %.not18 = icmp eq i64 %42, 0
  br i1 %.not18, label %43, label %lean_dec.exit

43:                                               ; preds = %l_Lake_buildLeanExe.exit
  %44 = load i32, ptr %1, align 4, !tbaa !4
  %45 = icmp sgt i32 %44, 1
  br i1 %45, label %46, label %48, !prof !12

46:                                               ; preds = %43
  %47 = add nsw i32 %44, -1
  store i32 %47, ptr %1, align 4, !tbaa !4
  br label %lean_dec.exit

48:                                               ; preds = %43
  %.not.i16 = icmp eq i32 %44, 0
  br i1 %.not.i16, label %lean_dec.exit, label %49

49:                                               ; preds = %48
  tail call void @lean_dec_ref_cold(ptr noundef nonnull %1) #5
  br label %lean_dec.exit

lean_dec.exit:                                    ; preds = %49, %48, %46, %l_Lake_buildLeanExe.exit
  ret ptr %40
}